
hypervisor.elf:     file format elf64-littleaarch64


Disassembly of section .text.startup:

0000000040000000 <_start_bare_metal>:
    40000000:	5800405e 	ldr	x30, 40000808 <el2_vec_table+0x788>
    40000004:	910003df 	mov	sp, x30
    40000008:	9400020f 	bl	40000844 <main>
    4000000c:	14000000 	b	4000000c <_start_bare_metal+0xc>

0000000040000010 <start_guest>:
    40000010:	5800401e 	ldr	x30, 40000810 <el2_vec_table+0x790>
    40000014:	910003df 	mov	sp, x30
    40000018:	94000200 	bl	40000818 <guest_main>
    4000001c:	14000000 	b	4000001c <start_guest+0xc>
    40000020:	d503201f 	nop
    40000024:	d503201f 	nop
    40000028:	d503201f 	nop
    4000002c:	d503201f 	nop
    40000030:	d503201f 	nop
    40000034:	d503201f 	nop
    40000038:	d503201f 	nop
    4000003c:	d503201f 	nop
    40000040:	d503201f 	nop
    40000044:	d503201f 	nop
    40000048:	d503201f 	nop
    4000004c:	d503201f 	nop
    40000050:	d503201f 	nop
    40000054:	d503201f 	nop
    40000058:	d503201f 	nop
    4000005c:	d503201f 	nop
    40000060:	d503201f 	nop
    40000064:	d503201f 	nop
    40000068:	d503201f 	nop
    4000006c:	d503201f 	nop
    40000070:	d503201f 	nop
    40000074:	d503201f 	nop
    40000078:	d503201f 	nop
    4000007c:	d503201f 	nop

0000000040000080 <el2_vec_table>:
    40000080:	1400023b 	b	4000096c <dummy_vector>
    40000084:	d503201f 	nop
    40000088:	d503201f 	nop
    4000008c:	d503201f 	nop
    40000090:	d503201f 	nop
    40000094:	d503201f 	nop
    40000098:	d503201f 	nop
    4000009c:	d503201f 	nop
    400000a0:	d503201f 	nop
    400000a4:	d503201f 	nop
    400000a8:	d503201f 	nop
    400000ac:	d503201f 	nop
    400000b0:	d503201f 	nop
    400000b4:	d503201f 	nop
    400000b8:	d503201f 	nop
    400000bc:	d503201f 	nop
    400000c0:	d503201f 	nop
    400000c4:	d503201f 	nop
    400000c8:	d503201f 	nop
    400000cc:	d503201f 	nop
    400000d0:	d503201f 	nop
    400000d4:	d503201f 	nop
    400000d8:	d503201f 	nop
    400000dc:	d503201f 	nop
    400000e0:	d503201f 	nop
    400000e4:	d503201f 	nop
    400000e8:	d503201f 	nop
    400000ec:	d503201f 	nop
    400000f0:	d503201f 	nop
    400000f4:	d503201f 	nop
    400000f8:	d503201f 	nop
    400000fc:	d503201f 	nop
    40000100:	1400021b 	b	4000096c <dummy_vector>
    40000104:	d503201f 	nop
    40000108:	d503201f 	nop
    4000010c:	d503201f 	nop
    40000110:	d503201f 	nop
    40000114:	d503201f 	nop
    40000118:	d503201f 	nop
    4000011c:	d503201f 	nop
    40000120:	d503201f 	nop
    40000124:	d503201f 	nop
    40000128:	d503201f 	nop
    4000012c:	d503201f 	nop
    40000130:	d503201f 	nop
    40000134:	d503201f 	nop
    40000138:	d503201f 	nop
    4000013c:	d503201f 	nop
    40000140:	d503201f 	nop
    40000144:	d503201f 	nop
    40000148:	d503201f 	nop
    4000014c:	d503201f 	nop
    40000150:	d503201f 	nop
    40000154:	d503201f 	nop
    40000158:	d503201f 	nop
    4000015c:	d503201f 	nop
    40000160:	d503201f 	nop
    40000164:	d503201f 	nop
    40000168:	d503201f 	nop
    4000016c:	d503201f 	nop
    40000170:	d503201f 	nop
    40000174:	d503201f 	nop
    40000178:	d503201f 	nop
    4000017c:	d503201f 	nop
    40000180:	140001fb 	b	4000096c <dummy_vector>
    40000184:	d503201f 	nop
    40000188:	d503201f 	nop
    4000018c:	d503201f 	nop
    40000190:	d503201f 	nop
    40000194:	d503201f 	nop
    40000198:	d503201f 	nop
    4000019c:	d503201f 	nop
    400001a0:	d503201f 	nop
    400001a4:	d503201f 	nop
    400001a8:	d503201f 	nop
    400001ac:	d503201f 	nop
    400001b0:	d503201f 	nop
    400001b4:	d503201f 	nop
    400001b8:	d503201f 	nop
    400001bc:	d503201f 	nop
    400001c0:	d503201f 	nop
    400001c4:	d503201f 	nop
    400001c8:	d503201f 	nop
    400001cc:	d503201f 	nop
    400001d0:	d503201f 	nop
    400001d4:	d503201f 	nop
    400001d8:	d503201f 	nop
    400001dc:	d503201f 	nop
    400001e0:	d503201f 	nop
    400001e4:	d503201f 	nop
    400001e8:	d503201f 	nop
    400001ec:	d503201f 	nop
    400001f0:	d503201f 	nop
    400001f4:	d503201f 	nop
    400001f8:	d503201f 	nop
    400001fc:	d503201f 	nop
    40000200:	140001db 	b	4000096c <dummy_vector>
    40000204:	d503201f 	nop
    40000208:	d503201f 	nop
    4000020c:	d503201f 	nop
    40000210:	d503201f 	nop
    40000214:	d503201f 	nop
    40000218:	d503201f 	nop
    4000021c:	d503201f 	nop
    40000220:	d503201f 	nop
    40000224:	d503201f 	nop
    40000228:	d503201f 	nop
    4000022c:	d503201f 	nop
    40000230:	d503201f 	nop
    40000234:	d503201f 	nop
    40000238:	d503201f 	nop
    4000023c:	d503201f 	nop
    40000240:	d503201f 	nop
    40000244:	d503201f 	nop
    40000248:	d503201f 	nop
    4000024c:	d503201f 	nop
    40000250:	d503201f 	nop
    40000254:	d503201f 	nop
    40000258:	d503201f 	nop
    4000025c:	d503201f 	nop
    40000260:	d503201f 	nop
    40000264:	d503201f 	nop
    40000268:	d503201f 	nop
    4000026c:	d503201f 	nop
    40000270:	d503201f 	nop
    40000274:	d503201f 	nop
    40000278:	d503201f 	nop
    4000027c:	d503201f 	nop
    40000280:	140001bb 	b	4000096c <dummy_vector>
    40000284:	d503201f 	nop
    40000288:	d503201f 	nop
    4000028c:	d503201f 	nop
    40000290:	d503201f 	nop
    40000294:	d503201f 	nop
    40000298:	d503201f 	nop
    4000029c:	d503201f 	nop
    400002a0:	d503201f 	nop
    400002a4:	d503201f 	nop
    400002a8:	d503201f 	nop
    400002ac:	d503201f 	nop
    400002b0:	d503201f 	nop
    400002b4:	d503201f 	nop
    400002b8:	d503201f 	nop
    400002bc:	d503201f 	nop
    400002c0:	d503201f 	nop
    400002c4:	d503201f 	nop
    400002c8:	d503201f 	nop
    400002cc:	d503201f 	nop
    400002d0:	d503201f 	nop
    400002d4:	d503201f 	nop
    400002d8:	d503201f 	nop
    400002dc:	d503201f 	nop
    400002e0:	d503201f 	nop
    400002e4:	d503201f 	nop
    400002e8:	d503201f 	nop
    400002ec:	d503201f 	nop
    400002f0:	d503201f 	nop
    400002f4:	d503201f 	nop
    400002f8:	d503201f 	nop
    400002fc:	d503201f 	nop
    40000300:	1400019b 	b	4000096c <dummy_vector>
    40000304:	d503201f 	nop
    40000308:	d503201f 	nop
    4000030c:	d503201f 	nop
    40000310:	d503201f 	nop
    40000314:	d503201f 	nop
    40000318:	d503201f 	nop
    4000031c:	d503201f 	nop
    40000320:	d503201f 	nop
    40000324:	d503201f 	nop
    40000328:	d503201f 	nop
    4000032c:	d503201f 	nop
    40000330:	d503201f 	nop
    40000334:	d503201f 	nop
    40000338:	d503201f 	nop
    4000033c:	d503201f 	nop
    40000340:	d503201f 	nop
    40000344:	d503201f 	nop
    40000348:	d503201f 	nop
    4000034c:	d503201f 	nop
    40000350:	d503201f 	nop
    40000354:	d503201f 	nop
    40000358:	d503201f 	nop
    4000035c:	d503201f 	nop
    40000360:	d503201f 	nop
    40000364:	d503201f 	nop
    40000368:	d503201f 	nop
    4000036c:	d503201f 	nop
    40000370:	d503201f 	nop
    40000374:	d503201f 	nop
    40000378:	d503201f 	nop
    4000037c:	d503201f 	nop
    40000380:	1400017b 	b	4000096c <dummy_vector>
    40000384:	d503201f 	nop
    40000388:	d503201f 	nop
    4000038c:	d503201f 	nop
    40000390:	d503201f 	nop
    40000394:	d503201f 	nop
    40000398:	d503201f 	nop
    4000039c:	d503201f 	nop
    400003a0:	d503201f 	nop
    400003a4:	d503201f 	nop
    400003a8:	d503201f 	nop
    400003ac:	d503201f 	nop
    400003b0:	d503201f 	nop
    400003b4:	d503201f 	nop
    400003b8:	d503201f 	nop
    400003bc:	d503201f 	nop
    400003c0:	d503201f 	nop
    400003c4:	d503201f 	nop
    400003c8:	d503201f 	nop
    400003cc:	d503201f 	nop
    400003d0:	d503201f 	nop
    400003d4:	d503201f 	nop
    400003d8:	d503201f 	nop
    400003dc:	d503201f 	nop
    400003e0:	d503201f 	nop
    400003e4:	d503201f 	nop
    400003e8:	d503201f 	nop
    400003ec:	d503201f 	nop
    400003f0:	d503201f 	nop
    400003f4:	d503201f 	nop
    400003f8:	d503201f 	nop
    400003fc:	d503201f 	nop
    40000400:	1400015b 	b	4000096c <dummy_vector>
    40000404:	d503201f 	nop
    40000408:	d503201f 	nop
    4000040c:	d503201f 	nop
    40000410:	d503201f 	nop
    40000414:	d503201f 	nop
    40000418:	d503201f 	nop
    4000041c:	d503201f 	nop
    40000420:	d503201f 	nop
    40000424:	d503201f 	nop
    40000428:	d503201f 	nop
    4000042c:	d503201f 	nop
    40000430:	d503201f 	nop
    40000434:	d503201f 	nop
    40000438:	d503201f 	nop
    4000043c:	d503201f 	nop
    40000440:	d503201f 	nop
    40000444:	d503201f 	nop
    40000448:	d503201f 	nop
    4000044c:	d503201f 	nop
    40000450:	d503201f 	nop
    40000454:	d503201f 	nop
    40000458:	d503201f 	nop
    4000045c:	d503201f 	nop
    40000460:	d503201f 	nop
    40000464:	d503201f 	nop
    40000468:	d503201f 	nop
    4000046c:	d503201f 	nop
    40000470:	d503201f 	nop
    40000474:	d503201f 	nop
    40000478:	d503201f 	nop
    4000047c:	d503201f 	nop
    40000480:	1400013d 	b	40000974 <hypervisor_exception_vector>
    40000484:	d503201f 	nop
    40000488:	d503201f 	nop
    4000048c:	d503201f 	nop
    40000490:	d503201f 	nop
    40000494:	d503201f 	nop
    40000498:	d503201f 	nop
    4000049c:	d503201f 	nop
    400004a0:	d503201f 	nop
    400004a4:	d503201f 	nop
    400004a8:	d503201f 	nop
    400004ac:	d503201f 	nop
    400004b0:	d503201f 	nop
    400004b4:	d503201f 	nop
    400004b8:	d503201f 	nop
    400004bc:	d503201f 	nop
    400004c0:	d503201f 	nop
    400004c4:	d503201f 	nop
    400004c8:	d503201f 	nop
    400004cc:	d503201f 	nop
    400004d0:	d503201f 	nop
    400004d4:	d503201f 	nop
    400004d8:	d503201f 	nop
    400004dc:	d503201f 	nop
    400004e0:	d503201f 	nop
    400004e4:	d503201f 	nop
    400004e8:	d503201f 	nop
    400004ec:	d503201f 	nop
    400004f0:	d503201f 	nop
    400004f4:	d503201f 	nop
    400004f8:	d503201f 	nop
    400004fc:	d503201f 	nop
    40000500:	1400011b 	b	4000096c <dummy_vector>
    40000504:	d503201f 	nop
    40000508:	d503201f 	nop
    4000050c:	d503201f 	nop
    40000510:	d503201f 	nop
    40000514:	d503201f 	nop
    40000518:	d503201f 	nop
    4000051c:	d503201f 	nop
    40000520:	d503201f 	nop
    40000524:	d503201f 	nop
    40000528:	d503201f 	nop
    4000052c:	d503201f 	nop
    40000530:	d503201f 	nop
    40000534:	d503201f 	nop
    40000538:	d503201f 	nop
    4000053c:	d503201f 	nop
    40000540:	d503201f 	nop
    40000544:	d503201f 	nop
    40000548:	d503201f 	nop
    4000054c:	d503201f 	nop
    40000550:	d503201f 	nop
    40000554:	d503201f 	nop
    40000558:	d503201f 	nop
    4000055c:	d503201f 	nop
    40000560:	d503201f 	nop
    40000564:	d503201f 	nop
    40000568:	d503201f 	nop
    4000056c:	d503201f 	nop
    40000570:	d503201f 	nop
    40000574:	d503201f 	nop
    40000578:	d503201f 	nop
    4000057c:	d503201f 	nop
    40000580:	140000fb 	b	4000096c <dummy_vector>
    40000584:	d503201f 	nop
    40000588:	d503201f 	nop
    4000058c:	d503201f 	nop
    40000590:	d503201f 	nop
    40000594:	d503201f 	nop
    40000598:	d503201f 	nop
    4000059c:	d503201f 	nop
    400005a0:	d503201f 	nop
    400005a4:	d503201f 	nop
    400005a8:	d503201f 	nop
    400005ac:	d503201f 	nop
    400005b0:	d503201f 	nop
    400005b4:	d503201f 	nop
    400005b8:	d503201f 	nop
    400005bc:	d503201f 	nop
    400005c0:	d503201f 	nop
    400005c4:	d503201f 	nop
    400005c8:	d503201f 	nop
    400005cc:	d503201f 	nop
    400005d0:	d503201f 	nop
    400005d4:	d503201f 	nop
    400005d8:	d503201f 	nop
    400005dc:	d503201f 	nop
    400005e0:	d503201f 	nop
    400005e4:	d503201f 	nop
    400005e8:	d503201f 	nop
    400005ec:	d503201f 	nop
    400005f0:	d503201f 	nop
    400005f4:	d503201f 	nop
    400005f8:	d503201f 	nop
    400005fc:	d503201f 	nop
    40000600:	140000db 	b	4000096c <dummy_vector>
    40000604:	d503201f 	nop
    40000608:	d503201f 	nop
    4000060c:	d503201f 	nop
    40000610:	d503201f 	nop
    40000614:	d503201f 	nop
    40000618:	d503201f 	nop
    4000061c:	d503201f 	nop
    40000620:	d503201f 	nop
    40000624:	d503201f 	nop
    40000628:	d503201f 	nop
    4000062c:	d503201f 	nop
    40000630:	d503201f 	nop
    40000634:	d503201f 	nop
    40000638:	d503201f 	nop
    4000063c:	d503201f 	nop
    40000640:	d503201f 	nop
    40000644:	d503201f 	nop
    40000648:	d503201f 	nop
    4000064c:	d503201f 	nop
    40000650:	d503201f 	nop
    40000654:	d503201f 	nop
    40000658:	d503201f 	nop
    4000065c:	d503201f 	nop
    40000660:	d503201f 	nop
    40000664:	d503201f 	nop
    40000668:	d503201f 	nop
    4000066c:	d503201f 	nop
    40000670:	d503201f 	nop
    40000674:	d503201f 	nop
    40000678:	d503201f 	nop
    4000067c:	d503201f 	nop
    40000680:	140000bb 	b	4000096c <dummy_vector>
    40000684:	d503201f 	nop
    40000688:	d503201f 	nop
    4000068c:	d503201f 	nop
    40000690:	d503201f 	nop
    40000694:	d503201f 	nop
    40000698:	d503201f 	nop
    4000069c:	d503201f 	nop
    400006a0:	d503201f 	nop
    400006a4:	d503201f 	nop
    400006a8:	d503201f 	nop
    400006ac:	d503201f 	nop
    400006b0:	d503201f 	nop
    400006b4:	d503201f 	nop
    400006b8:	d503201f 	nop
    400006bc:	d503201f 	nop
    400006c0:	d503201f 	nop
    400006c4:	d503201f 	nop
    400006c8:	d503201f 	nop
    400006cc:	d503201f 	nop
    400006d0:	d503201f 	nop
    400006d4:	d503201f 	nop
    400006d8:	d503201f 	nop
    400006dc:	d503201f 	nop
    400006e0:	d503201f 	nop
    400006e4:	d503201f 	nop
    400006e8:	d503201f 	nop
    400006ec:	d503201f 	nop
    400006f0:	d503201f 	nop
    400006f4:	d503201f 	nop
    400006f8:	d503201f 	nop
    400006fc:	d503201f 	nop
    40000700:	1400009b 	b	4000096c <dummy_vector>
    40000704:	d503201f 	nop
    40000708:	d503201f 	nop
    4000070c:	d503201f 	nop
    40000710:	d503201f 	nop
    40000714:	d503201f 	nop
    40000718:	d503201f 	nop
    4000071c:	d503201f 	nop
    40000720:	d503201f 	nop
    40000724:	d503201f 	nop
    40000728:	d503201f 	nop
    4000072c:	d503201f 	nop
    40000730:	d503201f 	nop
    40000734:	d503201f 	nop
    40000738:	d503201f 	nop
    4000073c:	d503201f 	nop
    40000740:	d503201f 	nop
    40000744:	d503201f 	nop
    40000748:	d503201f 	nop
    4000074c:	d503201f 	nop
    40000750:	d503201f 	nop
    40000754:	d503201f 	nop
    40000758:	d503201f 	nop
    4000075c:	d503201f 	nop
    40000760:	d503201f 	nop
    40000764:	d503201f 	nop
    40000768:	d503201f 	nop
    4000076c:	d503201f 	nop
    40000770:	d503201f 	nop
    40000774:	d503201f 	nop
    40000778:	d503201f 	nop
    4000077c:	d503201f 	nop
    40000780:	1400007b 	b	4000096c <dummy_vector>
    40000784:	d503201f 	nop
    40000788:	d503201f 	nop
    4000078c:	d503201f 	nop
    40000790:	d503201f 	nop
    40000794:	d503201f 	nop
    40000798:	d503201f 	nop
    4000079c:	d503201f 	nop
    400007a0:	d503201f 	nop
    400007a4:	d503201f 	nop
    400007a8:	d503201f 	nop
    400007ac:	d503201f 	nop
    400007b0:	d503201f 	nop
    400007b4:	d503201f 	nop
    400007b8:	d503201f 	nop
    400007bc:	d503201f 	nop
    400007c0:	d503201f 	nop
    400007c4:	d503201f 	nop
    400007c8:	d503201f 	nop
    400007cc:	d503201f 	nop
    400007d0:	d503201f 	nop
    400007d4:	d503201f 	nop
    400007d8:	d503201f 	nop
    400007dc:	d503201f 	nop
    400007e0:	d503201f 	nop
    400007e4:	d503201f 	nop
    400007e8:	d503201f 	nop
    400007ec:	d503201f 	nop
    400007f0:	d503201f 	nop
    400007f4:	d503201f 	nop
    400007f8:	d503201f 	nop
    400007fc:	d503201f 	nop
    40000800:	1400005b 	b	4000096c <dummy_vector>
    40000804:	00000000 	udf	#0
    40000808:	40004d60 	.inst	0x40004d60 ; undefined
    4000080c:	00000000 	udf	#0
    40000810:	40008d60 	.inst	0x40008d60 ; undefined
    40000814:	00000000 	udf	#0

Disassembly of section .text:

0000000040000818 <guest_main>:
    40000818:	a9bf7bfd 	stp	x29, x30, [sp, #-16]!
    4000081c:	910003fd 	mov	x29, sp
    40000820:	90000000 	adrp	x0, 40000000 <_start_bare_metal>
    40000824:	912b0000 	add	x0, x0, #0xac0
    40000828:	9400008a 	bl	40000a50 <puts>
    4000082c:	d503207f 	wfi
    40000830:	90000000 	adrp	x0, 40000000 <_start_bare_metal>
    40000834:	912b4000 	add	x0, x0, #0xad0
    40000838:	94000086 	bl	40000a50 <puts>
    4000083c:	d503201f 	nop
    40000840:	17fffffb 	b	4000082c <guest_main+0x14>

0000000040000844 <main>:
    40000844:	a9bf7bfd 	stp	x29, x30, [sp, #-16]!
    40000848:	910003fd 	mov	x29, sp
    4000084c:	9400000c 	bl	4000087c <check_execution_level>
    40000850:	7100081f 	cmp	w0, #0x2
    40000854:	540000e1 	b.ne	40000870 <main+0x2c>  // b.any
    40000858:	9400001f 	bl	400008d4 <install_el2_vbar>
    4000085c:	94000029 	bl	40000900 <start_guest_VM>
    40000860:	90000000 	adrp	x0, 40000000 <_start_bare_metal>
    40000864:	912b8000 	add	x0, x0, #0xae0
    40000868:	9400007a 	bl	40000a50 <puts>
    4000086c:	14000002 	b	40000874 <main+0x30>
    40000870:	d503201f 	nop
    40000874:	a8c17bfd 	ldp	x29, x30, [sp], #16
    40000878:	d65f03c0 	ret

000000004000087c <check_execution_level>:
    4000087c:	a9be7bfd 	stp	x29, x30, [sp, #-32]!
    40000880:	910003fd 	mov	x29, sp
    40000884:	d5384240 	mrs	x0, currentel
    40000888:	f9000fe0 	str	x0, [sp, #24]
    4000088c:	f9400fe0 	ldr	x0, [sp, #24]
    40000890:	d342fc00 	lsr	x0, x0, #2
    40000894:	f100081f 	cmp	x0, #0x2
    40000898:	540000c1 	b.ne	400008b0 <check_execution_level+0x34>  // b.any
    4000089c:	90000000 	adrp	x0, 40000000 <_start_bare_metal>
    400008a0:	912be000 	add	x0, x0, #0xaf8
    400008a4:	9400006b 	bl	40000a50 <puts>
    400008a8:	52800040 	mov	w0, #0x2                   	// #2
    400008ac:	14000008 	b	400008cc <check_execution_level+0x50>
    400008b0:	90000000 	adrp	x0, 40000000 <_start_bare_metal>
    400008b4:	912c6000 	add	x0, x0, #0xb18
    400008b8:	94000066 	bl	40000a50 <puts>
    400008bc:	90000000 	adrp	x0, 40000000 <_start_bare_metal>
    400008c0:	912d4000 	add	x0, x0, #0xb50
    400008c4:	94000063 	bl	40000a50 <puts>
    400008c8:	52800020 	mov	w0, #0x1                   	// #1
    400008cc:	a8c27bfd 	ldp	x29, x30, [sp], #32
    400008d0:	d65f03c0 	ret

00000000400008d4 <install_el2_vbar>:
    400008d4:	a9bf7bfd 	stp	x29, x30, [sp, #-16]!
    400008d8:	910003fd 	mov	x29, sp
    400008dc:	90000000 	adrp	x0, 40000000 <_start_bare_metal>
    400008e0:	f9469c00 	ldr	x0, [x0, #3384]
    400008e4:	d51cc000 	msr	vbar_el2, x0
    400008e8:	90000000 	adrp	x0, 40000000 <_start_bare_metal>
    400008ec:	912d8000 	add	x0, x0, #0xb60
    400008f0:	94000058 	bl	40000a50 <puts>
    400008f4:	d503201f 	nop
    400008f8:	a8c17bfd 	ldp	x29, x30, [sp], #16
    400008fc:	d65f03c0 	ret

0000000040000900 <start_guest_VM>:
    40000900:	a9be7bfd 	stp	x29, x30, [sp, #-32]!
    40000904:	910003fd 	mov	x29, sp
    40000908:	d53c1100 	mrs	x0, hcr_el2
    4000090c:	f9000fe0 	str	x0, [sp, #24]
    40000910:	f9400fe1 	ldr	x1, [sp, #24]
    40000914:	9293ffe0 	mov	x0, #0xffffffffffff6000    	// #-40960
    40000918:	f2b00000 	movk	x0, #0x8000, lsl #16
    4000091c:	aa000020 	orr	x0, x1, x0
    40000920:	f9000fe0 	str	x0, [sp, #24]
    40000924:	f9400fe0 	ldr	x0, [sp, #24]
    40000928:	d51c1100 	msr	hcr_el2, x0
    4000092c:	90000000 	adrp	x0, 40000000 <_start_bare_metal>
    40000930:	f9469800 	ldr	x0, [x0, #3376]
    40000934:	d51c4020 	msr	elr_el2, x0
    40000938:	52800000 	mov	w0, #0x0                   	// #0
    4000093c:	d51c4000 	msr	spsr_el2, x0
    40000940:	90000000 	adrp	x0, 40000000 <_start_bare_metal>
    40000944:	f946a000 	ldr	x0, [x0, #3392]
    40000948:	f9400000 	ldr	x0, [x0]
    4000094c:	d51c4100 	msr	sp_el1, x0
    40000950:	90000000 	adrp	x0, 40000000 <_start_bare_metal>
    40000954:	912de000 	add	x0, x0, #0xb78
    40000958:	9400003e 	bl	40000a50 <puts>
    4000095c:	d69f03e0 	eret
    40000960:	d503201f 	nop
    40000964:	a8c27bfd 	ldp	x29, x30, [sp], #32
    40000968:	d65f03c0 	ret

000000004000096c <dummy_vector>:
    4000096c:	d503201f 	nop
    40000970:	17ffffff 	b	4000096c <dummy_vector>

0000000040000974 <hypervisor_exception_vector>:
    40000974:	a9be7bfd 	stp	x29, x30, [sp, #-32]!
    40000978:	910003fd 	mov	x29, sp
    4000097c:	90000000 	adrp	x0, 40000000 <_start_bare_metal>
    40000980:	912e2000 	add	x0, x0, #0xb88
    40000984:	94000033 	bl	40000a50 <puts>
    40000988:	d53c5200 	mrs	x0, esr_el2
    4000098c:	f9000be0 	str	x0, [sp, #16]
    40000990:	f9400be0 	ldr	x0, [sp, #16]
    40000994:	d35afc00 	lsr	x0, x0, #26
    40000998:	f9000fe0 	str	x0, [sp, #24]
    4000099c:	f9400fe0 	ldr	x0, [sp, #24]
    400009a0:	f100041f 	cmp	x0, #0x1
    400009a4:	54000181 	b.ne	400009d4 <hypervisor_exception_vector+0x60>  // b.any
    400009a8:	f9400be0 	ldr	x0, [sp, #16]
    400009ac:	92400000 	and	x0, x0, #0x1
    400009b0:	f100001f 	cmp	x0, #0x0
    400009b4:	540000a0 	b.eq	400009c8 <hypervisor_exception_vector+0x54>  // b.none
    400009b8:	90000000 	adrp	x0, 40000000 <_start_bare_metal>
    400009bc:	912ec000 	add	x0, x0, #0xbb0
    400009c0:	94000024 	bl	40000a50 <puts>
    400009c4:	14000004 	b	400009d4 <hypervisor_exception_vector+0x60>
    400009c8:	90000000 	adrp	x0, 40000000 <_start_bare_metal>
    400009cc:	912f0000 	add	x0, x0, #0xbc0
    400009d0:	94000020 	bl	40000a50 <puts>
    400009d4:	d69f03e0 	eret
    400009d8:	d503201f 	nop
    400009dc:	a8c27bfd 	ldp	x29, x30, [sp], #32
    400009e0:	d65f03c0 	ret

00000000400009e4 <uart_putc>:
    400009e4:	d10083ff 	sub	sp, sp, #0x20
    400009e8:	39003fe0 	strb	w0, [sp, #15]
    400009ec:	d2a12000 	mov	x0, #0x9000000             	// #150994944
    400009f0:	f9000fe0 	str	x0, [sp, #24]
    400009f4:	39403fe1 	ldrb	w1, [sp, #15]
    400009f8:	f9400fe0 	ldr	x0, [sp, #24]
    400009fc:	b9000001 	str	w1, [x0]
    40000a00:	d503201f 	nop
    40000a04:	910083ff 	add	sp, sp, #0x20
    40000a08:	d65f03c0 	ret

0000000040000a0c <uart_puts>:
    40000a0c:	a9be7bfd 	stp	x29, x30, [sp, #-32]!
    40000a10:	910003fd 	mov	x29, sp
    40000a14:	f9000fe0 	str	x0, [sp, #24]
    40000a18:	14000006 	b	40000a30 <uart_puts+0x24>
    40000a1c:	f9400fe0 	ldr	x0, [sp, #24]
    40000a20:	91000401 	add	x1, x0, #0x1
    40000a24:	f9000fe1 	str	x1, [sp, #24]
    40000a28:	39400000 	ldrb	w0, [x0]
    40000a2c:	97ffffee 	bl	400009e4 <uart_putc>
    40000a30:	f9400fe0 	ldr	x0, [sp, #24]
    40000a34:	39400000 	ldrb	w0, [x0]
    40000a38:	7100001f 	cmp	w0, #0x0
    40000a3c:	54ffff01 	b.ne	40000a1c <uart_puts+0x10>  // b.any
    40000a40:	d503201f 	nop
    40000a44:	d503201f 	nop
    40000a48:	a8c27bfd 	ldp	x29, x30, [sp], #32
    40000a4c:	d65f03c0 	ret

0000000040000a50 <puts>:
    40000a50:	a9be7bfd 	stp	x29, x30, [sp, #-32]!
    40000a54:	910003fd 	mov	x29, sp
    40000a58:	f9000fe0 	str	x0, [sp, #24]
    40000a5c:	14000006 	b	40000a74 <puts+0x24>
    40000a60:	f9400fe0 	ldr	x0, [sp, #24]
    40000a64:	91000401 	add	x1, x0, #0x1
    40000a68:	f9000fe1 	str	x1, [sp, #24]
    40000a6c:	39400000 	ldrb	w0, [x0]
    40000a70:	97ffffdd 	bl	400009e4 <uart_putc>
    40000a74:	f9400fe0 	ldr	x0, [sp, #24]
    40000a78:	39400000 	ldrb	w0, [x0]
    40000a7c:	7100001f 	cmp	w0, #0x0
    40000a80:	54ffff01 	b.ne	40000a60 <puts+0x10>  // b.any
    40000a84:	52800140 	mov	w0, #0xa                   	// #10
    40000a88:	97ffffd7 	bl	400009e4 <uart_putc>
    40000a8c:	52800000 	mov	w0, #0x0                   	// #0
    40000a90:	a8c27bfd 	ldp	x29, x30, [sp], #32
    40000a94:	d65f03c0 	ret

0000000040000a98 <__io_putchar>:
    40000a98:	a9be7bfd 	stp	x29, x30, [sp, #-32]!
    40000a9c:	910003fd 	mov	x29, sp
    40000aa0:	b9001fe0 	str	w0, [sp, #28]
    40000aa4:	b9401fe0 	ldr	w0, [sp, #28]
    40000aa8:	12001c00 	and	w0, w0, #0xff
    40000aac:	97ffffce 	bl	400009e4 <uart_putc>
    40000ab0:	b9401fe0 	ldr	w0, [sp, #28]
    40000ab4:	a8c27bfd 	ldp	x29, x30, [sp], #32
    40000ab8:	d65f03c0 	ret
